target datalayout = "e-m:e-p270:32:32-p271:32:32-p272:64:64-i64:64-i128:128-f80:128-n8:16:32:64-S128"
target triple = "x86_64-pc-linux-gnu"

%union.ieee_float_shape_type = type { float }

; Function Attrs: nounwind uwtable
define hidden i32 @SDL_uclibc_isnanf(float noundef %0) #0 {
  %2 = alloca float, align 4
  %3 = alloca i32, align 4
  %4 = alloca %union.ieee_float_shape_type, align 4
  store float %0, ptr %2, align 4
  call void @llvm.lifetime.start.p0(i64 4, ptr %3) #2
  br label %5

5:                                                ; preds = %1
  call void @llvm.lifetime.start.p0(i64 4, ptr %4) #2
  %6 = load float, ptr %2, align 4
  store float %6, ptr %4, align 4
  %7 = load i32, ptr %4, align 4
  store i32 %7, ptr %3, align 4
  call void @llvm.lifetime.end.p0(i64 4, ptr %4) #2
  br label %8

8:                                                ; preds = %5
  br label %9

9:                                                ; preds = %8
  %10 = load i32, ptr %3, align 4
  %11 = and i32 %10, 2147483647
  store i32 %11, ptr %3, align 4
  %12 = load i32, ptr %3, align 4
  %13 = sub nsw i32 2139095040, %12
  store i32 %13, ptr %3, align 4
  %14 = load i32, ptr %3, align 4
  %15 = lshr i32 %14, 31
  call void @llvm.lifetime.end.p0(i64 4, ptr %3) #2
  ret i32 %15
}

; Function Attrs: nocallback nofree nosync nounwind willreturn memory(argmem: readwrite)
declare void @llvm.lifetime.start.p0(i64 immarg, ptr captures(none)) #1

; Function Attrs: nocallback nofree nosync nounwind willreturn memory(argmem: readwrite)
declare void @llvm.lifetime.end.p0(i64 immarg, ptr captures(none)) #1


!llvm.module.flags = !{!0, !1, !2, !3}

!0 = !{i32 1, !"wchar_size", i32 4}
!1 = !{i32 8, !"PIC Level", i32 2}
!2 = !{i32 7, !"PIE Level", i32 2}
!3 = !{i32 7, !"uwtable", i32 2}
