; ModuleID = 'bench/sdl/original/s_isnanf.ll'
source_filename = "bench/sdl/original/s_isnanf.ll"
target datalayout = "e-m:e-p270:32:32-p271:32:32-p272:64:64-i64:64-i128:128-f80:128-n8:16:32:64-S128"
target triple = "x86_64-pc-linux-gnu"

; Function Attrs: mustprogress nofree norecurse nosync nounwind willreturn memory(none) uwtable
define hidden range(i32 0, 2) i32 @SDL_uclibc_isnanf(float noundef %0) local_unnamed_addr #0 {
  %2 = tail call float @llvm.fabs.f32(float %0)
  %3 = bitcast float %2 to i32
  %4 = icmp samesign ugt i32 %3, 2139095040
  %5 = zext i1 %4 to i32
  ret i32 %5
}

; Function Attrs: nocallback nofree nosync nounwind speculatable willreturn memory(none)
declare float @llvm.fabs.f32(float) #1


!llvm.module.flags = !{!0, !1, !2, !3}

!0 = !{i32 1, !"wchar_size", i32 4}
!1 = !{i32 8, !"PIC Level", i32 2}
!2 = !{i32 7, !"PIE Level", i32 2}
!3 = !{i32 7, !"uwtable", i32 2}
